target datalayout = "e-m:e-p270:32:32-p271:32:32-p272:64:64-i64:64-i128:128-f80:128-n8:16:32:64-S128"
target triple = "x86_64-pc-linux-gnu"

@hf_9P_getattr_mode = internal global i32 0, align 4
@hf_9P_getattr_nlink = internal global i32 0, align 4
@hf_9P_getattr_uid = internal global i32 0, align 4
@hf_9P_getattr_gid = internal global i32 0, align 4
@hf_9P_getattr_rdev = internal global i32 0, align 4
@hf_9P_getattr_atime = internal global i32 0, align 4
@hf_9P_getattr_mtime = internal global i32 0, align 4
@hf_9P_getattr_ctime = internal global i32 0, align 4
@hf_9P_getattr_ino = internal global i32 0, align 4
@hf_9P_getattr_size = internal global i32 0, align 4
@hf_9P_getattr_blocks = internal global i32 0, align 4
@hf_9P_getattr_btime = internal global i32 0, align 4
@hf_9P_getattr_gen = internal global i32 0, align 4
@hf_9P_getattr_dataversion = internal global i32 0, align 4
@ett_9P_getattr_flags = internal global i32 0, align 4

; Function Attrs: null_pointer_is_valid sspstrong uwtable
define internal void @dissect_9P_getattrflags(ptr noundef %0, ptr noundef %1, i32 noundef %2) #0 {
  %4 = alloca ptr, align 8
  %5 = alloca ptr, align 8
  %6 = alloca i32, align 4
  %7 = alloca ptr, align 8
  %8 = alloca i32, align 4
  store ptr %0, ptr %4, align 8
  store ptr %1, ptr %5, align 8
  store i32 %2, ptr %6, align 4
  call void @llvm.lifetime.start.p0(i64 8, ptr %7) #7
  %9 = load ptr, ptr %5, align 8
  %10 = load i32, ptr @ett_9P_getattr_flags, align 4
  %11 = call ptr @proto_item_add_subtree(ptr noundef %9, i32 noundef %10)
  store ptr %11, ptr %7, align 8
  %12 = load ptr, ptr %7, align 8
  %13 = icmp ne ptr %12, null
  br i1 %13, label %15, label %14

14:                                               ; preds = %3
  store i32 1, ptr %8, align 4
  br label %86

15:                                               ; preds = %3
  %16 = load ptr, ptr %7, align 8
  %17 = load i32, ptr @hf_9P_getattr_mode, align 4
  %18 = load ptr, ptr %4, align 8
  %19 = load i32, ptr %6, align 4
  %20 = call ptr @proto_tree_add_item(ptr noundef %16, i32 noundef %17, ptr noundef %18, i32 noundef %19, i32 noundef 4, i32 noundef -2147483648)
  %21 = load ptr, ptr %7, align 8
  %22 = load i32, ptr @hf_9P_getattr_nlink, align 4
  %23 = load ptr, ptr %4, align 8
  %24 = load i32, ptr %6, align 4
  %25 = call ptr @proto_tree_add_item(ptr noundef %21, i32 noundef %22, ptr noundef %23, i32 noundef %24, i32 noundef 4, i32 noundef -2147483648)
  %26 = load ptr, ptr %7, align 8
  %27 = load i32, ptr @hf_9P_getattr_uid, align 4
  %28 = load ptr, ptr %4, align 8
  %29 = load i32, ptr %6, align 4
  %30 = call ptr @proto_tree_add_item(ptr noundef %26, i32 noundef %27, ptr noundef %28, i32 noundef %29, i32 noundef 4, i32 noundef -2147483648)
  %31 = load ptr, ptr %7, align 8
  %32 = load i32, ptr @hf_9P_getattr_gid, align 4
  %33 = load ptr, ptr %4, align 8
  %34 = load i32, ptr %6, align 4
  %35 = call ptr @proto_tree_add_item(ptr noundef %31, i32 noundef %32, ptr noundef %33, i32 noundef %34, i32 noundef 4, i32 noundef -2147483648)
  %36 = load ptr, ptr %7, align 8
  %37 = load i32, ptr @hf_9P_getattr_rdev, align 4
  %38 = load ptr, ptr %4, align 8
  %39 = load i32, ptr %6, align 4
  %40 = call ptr @proto_tree_add_item(ptr noundef %36, i32 noundef %37, ptr noundef %38, i32 noundef %39, i32 noundef 4, i32 noundef -2147483648)
  %41 = load ptr, ptr %7, align 8
  %42 = load i32, ptr @hf_9P_getattr_atime, align 4
  %43 = load ptr, ptr %4, align 8
  %44 = load i32, ptr %6, align 4
  %45 = call ptr @proto_tree_add_item(ptr noundef %41, i32 noundef %42, ptr noundef %43, i32 noundef %44, i32 noundef 4, i32 noundef -2147483648)
  %46 = load ptr, ptr %7, align 8
  %47 = load i32, ptr @hf_9P_getattr_mtime, align 4
  %48 = load ptr, ptr %4, align 8
  %49 = load i32, ptr %6, align 4
  %50 = call ptr @proto_tree_add_item(ptr noundef %46, i32 noundef %47, ptr noundef %48, i32 noundef %49, i32 noundef 4, i32 noundef -2147483648)
  %51 = load ptr, ptr %7, align 8
  %52 = load i32, ptr @hf_9P_getattr_ctime, align 4
  %53 = load ptr, ptr %4, align 8
  %54 = load i32, ptr %6, align 4
  %55 = call ptr @proto_tree_add_item(ptr noundef %51, i32 noundef %52, ptr noundef %53, i32 noundef %54, i32 noundef 4, i32 noundef -2147483648)
  %56 = load ptr, ptr %7, align 8
  %57 = load i32, ptr @hf_9P_getattr_ino, align 4
  %58 = load ptr, ptr %4, align 8
  %59 = load i32, ptr %6, align 4
  %60 = call ptr @proto_tree_add_item(ptr noundef %56, i32 noundef %57, ptr noundef %58, i32 noundef %59, i32 noundef 4, i32 noundef -2147483648)
  %61 = load ptr, ptr %7, align 8
  %62 = load i32, ptr @hf_9P_getattr_size, align 4
  %63 = load ptr, ptr %4, align 8
  %64 = load i32, ptr %6, align 4
  %65 = call ptr @proto_tree_add_item(ptr noundef %61, i32 noundef %62, ptr noundef %63, i32 noundef %64, i32 noundef 4, i32 noundef -2147483648)
  %66 = load ptr, ptr %7, align 8
  %67 = load i32, ptr @hf_9P_getattr_blocks, align 4
  %68 = load ptr, ptr %4, align 8
  %69 = load i32, ptr %6, align 4
  %70 = call ptr @proto_tree_add_item(ptr noundef %66, i32 noundef %67, ptr noundef %68, i32 noundef %69, i32 noundef 4, i32 noundef -2147483648)
  %71 = load ptr, ptr %7, align 8
  %72 = load i32, ptr @hf_9P_getattr_btime, align 4
  %73 = load ptr, ptr %4, align 8
  %74 = load i32, ptr %6, align 4
  %75 = call ptr @proto_tree_add_item(ptr noundef %71, i32 noundef %72, ptr noundef %73, i32 noundef %74, i32 noundef 4, i32 noundef -2147483648)
  %76 = load ptr, ptr %7, align 8
  %77 = load i32, ptr @hf_9P_getattr_gen, align 4
  %78 = load ptr, ptr %4, align 8
  %79 = load i32, ptr %6, align 4
  %80 = call ptr @proto_tree_add_item(ptr noundef %76, i32 noundef %77, ptr noundef %78, i32 noundef %79, i32 noundef 4, i32 noundef -2147483648)
  %81 = load ptr, ptr %7, align 8
  %82 = load i32, ptr @hf_9P_getattr_dataversion, align 4
  %83 = load ptr, ptr %4, align 8
  %84 = load i32, ptr %6, align 4
  %85 = call ptr @proto_tree_add_item(ptr noundef %81, i32 noundef %82, ptr noundef %83, i32 noundef %84, i32 noundef 4, i32 noundef -2147483648)
  store i32 0, ptr %8, align 4
  br label %86

86:                                               ; preds = %15, %14
  call void @llvm.lifetime.end.p0(i64 8, ptr %7) #7
  %87 = load i32, ptr %8, align 4
  switch i32 %87, label %89 [
    i32 0, label %88
    i32 1, label %88
  ]

88:                                               ; preds = %86, %86
  ret void

89:                                               ; preds = %86
  unreachable
}