; Function Attrs: null_pointer_is_valid sspstrong uwtable
define internal fastcc void @dissect_9P_getattrflags(ptr noundef %0, ptr noundef %1, i32 noundef range(i32 7, 12) %2) unnamed_addr #0 {
  %4 = load i32, ptr @ett_9P_getattr_flags, align 4
  %5 = tail call ptr @proto_item_add_subtree(ptr noundef %1, i32 noundef %4)
  %.not = icmp eq ptr %5, null
  br i1 %.not, label %35, label %6

6:                                                ; preds = %3
  %7 = load i32, ptr @hf_9P_getattr_mode, align 4
  %8 = tail call ptr @proto_tree_add_item(ptr noundef nonnull %5, i32 noundef %7, ptr noundef %0, i32 noundef %2, i32 noundef 4, i32 noundef -2147483648)
  %9 = load i32, ptr @hf_9P_getattr_nlink, align 4
  %10 = tail call ptr @proto_tree_add_item(ptr noundef nonnull %5, i32 noundef %9, ptr noundef %0, i32 noundef %2, i32 noundef 4, i32 noundef -2147483648)
  %11 = load i32, ptr @hf_9P_getattr_uid, align 4
  %12 = tail call ptr @proto_tree_add_item(ptr noundef nonnull %5, i32 noundef %11, ptr noundef %0, i32 noundef %2, i32 noundef 4, i32 noundef -2147483648)
  %13 = load i32, ptr @hf_9P_getattr_gid, align 4
  %14 = tail call ptr @proto_tree_add_item(ptr noundef nonnull %5, i32 noundef %13, ptr noundef %0, i32 noundef %2, i32 noundef 4, i32 noundef -2147483648)
  %15 = load i32, ptr @hf_9P_getattr_rdev, align 4
  %16 = tail call ptr @proto_tree_add_item(ptr noundef nonnull %5, i32 noundef %15, ptr noundef %0, i32 noundef %2, i32 noundef 4, i32 noundef -2147483648)
  %17 = load i32, ptr @hf_9P_getattr_atime, align 4
  %18 = tail call ptr @proto_tree_add_item(ptr noundef nonnull %5, i32 noundef %17, ptr noundef %0, i32 noundef %2, i32 noundef 4, i32 noundef -2147483648)
  %19 = load i32, ptr @hf_9P_getattr_mtime, align 4
  %20 = tail call ptr @proto_tree_add_item(ptr noundef nonnull %5, i32 noundef %19, ptr noundef %0, i32 noundef %2, i32 noundef 4, i32 noundef -2147483648)
  %21 = load i32, ptr @hf_9P_getattr_ctime, align 4
  %22 = tail call ptr @proto_tree_add_item(ptr noundef nonnull %5, i32 noundef %21, ptr noundef %0, i32 noundef %2, i32 noundef 4, i32 noundef -2147483648)
  %23 = load i32, ptr @hf_9P_getattr_ino, align 4
  %24 = tail call ptr @proto_tree_add_item(ptr noundef nonnull %5, i32 noundef %23, ptr noundef %0, i32 noundef %2, i32 noundef 4, i32 noundef -2147483648)
  %25 = load i32, ptr @hf_9P_getattr_size, align 4
  %26 = tail call ptr @proto_tree_add_item(ptr noundef nonnull %5, i32 noundef %25, ptr noundef %0, i32 noundef %2, i32 noundef 4, i32 noundef -2147483648)
  %27 = load i32, ptr @hf_9P_getattr_blocks, align 4
  %28 = tail call ptr @proto_tree_add_item(ptr noundef nonnull %5, i32 noundef %27, ptr noundef %0, i32 noundef %2, i32 noundef 4, i32 noundef -2147483648)
  %29 = load i32, ptr @hf_9P_getattr_btime, align 4
  %30 = tail call ptr @proto_tree_add_item(ptr noundef nonnull %5, i32 noundef %29, ptr noundef %0, i32 noundef %2, i32 noundef 4, i32 noundef -2147483648)
  %31 = load i32, ptr @hf_9P_getattr_gen, align 4
  %32 = tail call ptr @proto_tree_add_item(ptr noundef nonnull %5, i32 noundef %31, ptr noundef %0, i32 noundef %2, i32 noundef 4, i32 noundef -2147483648)
  %33 = load i32, ptr @hf_9P_getattr_dataversion, align 4
  %34 = tail call ptr @proto_tree_add_item(ptr noundef nonnull %5, i32 noundef %33, ptr noundef %0, i32 noundef %2, i32 noundef 4, i32 noundef -2147483648)
  br label %35

35:                                               ; preds = %3, %6
  ret void
}